target datalayout = "e-m:e-p270:32:32-p271:32:32-p272:64:64-i64:64-i128:128-f80:128-n8:16:32:64-S128"
target triple = "x86_64-pc-linux-gnu"

@.str = private unnamed_addr constant [35 x i8] c"../openssl/crypto/pkcs7/pk7_attr.c\00", align 1
@__func__.PKCS7_add0_attrib_signing_time = private unnamed_addr constant [31 x i8] c"PKCS7_add0_attrib_signing_time\00", align 1

; Function Attrs: nounwind uwtable
define i32 @PKCS7_add0_attrib_signing_time(ptr noundef %0, ptr noundef %1) #0 {
  %3 = alloca i32, align 4
  %4 = alloca ptr, align 8
  %5 = alloca ptr, align 8
  %6 = alloca ptr, align 8
  %7 = alloca i32, align 4
  store ptr %0, ptr %4, align 8, !tbaa !3
  store ptr %1, ptr %5, align 8, !tbaa !10
  call void @llvm.lifetime.start.p0(i64 8, ptr %6) #4
  store ptr null, ptr %6, align 8, !tbaa !10
  %8 = load ptr, ptr %5, align 8, !tbaa !10
  %9 = icmp eq ptr %8, null
  br i1 %9, label %10, label %14

10:                                               ; preds = %2
  %11 = call ptr @X509_gmtime_adj(ptr noundef null, i64 noundef 0)
  store ptr %11, ptr %5, align 8, !tbaa !10
  store ptr %11, ptr %6, align 8, !tbaa !10
  %12 = icmp eq ptr %11, null
  br i1 %12, label %13, label %14

13:                                               ; preds = %10
  call void @ERR_new()
  call void @ERR_set_debug(ptr noundef @.str, i32 noundef 112, ptr noundef @__func__.PKCS7_add0_attrib_signing_time)
  call void (i32, i32, ptr, ...) @ERR_set_error(i32 noundef 33, i32 noundef 524299, ptr noundef null)
  store i32 0, ptr %3, align 4
  store i32 1, ptr %7, align 4
  br label %22

14:                                               ; preds = %10, %2
  %15 = load ptr, ptr %4, align 8, !tbaa !3
  %16 = load ptr, ptr %5, align 8, !tbaa !10
  %17 = call i32 @PKCS7_add_signed_attribute(ptr noundef %15, i32 noundef 52, i32 noundef 23, ptr noundef %16)
  %18 = icmp ne i32 %17, 0
  br i1 %18, label %21, label %19

19:                                               ; preds = %14
  %20 = load ptr, ptr %6, align 8, !tbaa !10
  call void @ASN1_TIME_free(ptr noundef %20)
  store i32 0, ptr %3, align 4
  store i32 1, ptr %7, align 4
  br label %22

21:                                               ; preds = %14
  store i32 1, ptr %3, align 4
  store i32 1, ptr %7, align 4
  br label %22

22:                                               ; preds = %21, %19, %13
  call void @llvm.lifetime.end.p0(i64 8, ptr %6) #4
  %23 = load i32, ptr %3, align 4
  ret i32 %23
}