; Function Attrs: nounwind uwtable
define range(i32 0, 2) i32 @PKCS7_add0_attrib_signing_time(ptr noundef %0, ptr noundef %1) local_unnamed_addr #0 {
  %3 = icmp eq ptr %1, null
  br i1 %3, label %4, label %8

4:                                                ; preds = %2
  %5 = tail call ptr @X509_gmtime_adj(ptr noundef null, i64 noundef 0) #3
  %6 = icmp eq ptr %5, null
  br i1 %6, label %7, label %8

7:                                                ; preds = %4
  tail call void @ERR_new() #3
  tail call void @ERR_set_debug(ptr noundef nonnull @.str, i32 noundef 112, ptr noundef nonnull @__func__.PKCS7_add0_attrib_signing_time) #3
  tail call void (i32, i32, ptr, ...) @ERR_set_error(i32 noundef 33, i32 noundef 524299, ptr noundef null) #3
  br label %11

8:                                                ; preds = %4, %2
  %.04 = phi ptr [ %5, %4 ], [ %1, %2 ]
  %.0 = phi ptr [ %5, %4 ], [ null, %2 ]
  %9 = tail call i32 @PKCS7_add_signed_attribute(ptr noundef %0, i32 noundef 52, i32 noundef 23, ptr noundef nonnull %.04) #3
  %.not = icmp eq i32 %9, 0
  br i1 %.not, label %10, label %11

10:                                               ; preds = %8
  tail call void @ASN1_TIME_free(ptr noundef %.0) #3
  br label %11

11:                                               ; preds = %8, %10, %7
  %.05 = phi i32 [ 0, %7 ], [ 0, %10 ], [ 1, %8 ]
  ret i32 %.05
}